target datalayout = "e-m:e-p270:32:32-p271:32:32-p272:64:64-i64:64-i128:128-f80:128-n8:16:32:64-S128"
target triple = "x86_64-pc-linux-gnu"

%struct.VP8Io = type { i32, i32, i32, i32, i32, ptr, ptr, ptr, i32, i32, ptr, ptr, ptr, ptr, i32, i64, ptr, i32, i32, i32, i32, i32, i32, i32, i32, i32, ptr }
%struct.WebPDecParams = type { ptr, ptr, ptr, ptr, i32, ptr, ptr, ptr, ptr, ptr, ptr, ptr, ptr, ptr }
%struct.WebPDecBuffer = type { i32, i32, i32, i32, %union.anon, [4 x i32], ptr }
%union.anon = type { %struct.WebPYUVABuffer }
%struct.WebPYUVABuffer = type { ptr, ptr, ptr, ptr, i32, i32, i32, i32, i64, i64, i64, i64 }
%struct.WebPRescaler = type { i32, i32, i32, i32, i32, i32, i32, i32, i32, i32, i32, i32, i32, i32, i32, i32, i32, ptr, i32, ptr, ptr }
%struct.WebPRGBABuffer = type { ptr, i32, i64 }

@WebPYUV444Converters = external global [0 x ptr], align 8

; Function Attrs: inlinehint nounwind uwtable
define internal i32 @WebPRescalerOutputDone(ptr noundef %0) #2 {
  %2 = alloca ptr, align 8
  store ptr %0, ptr %2, align 8, !tbaa !45
  %3 = load ptr, ptr %2, align 8, !tbaa !45
  %4 = getelementptr inbounds nuw %struct.WebPRescaler, ptr %3, i32 0, i32 16
  %5 = load i32, ptr %4, align 8, !tbaa !95
  %6 = load ptr, ptr %2, align 8, !tbaa !45
  %7 = getelementptr inbounds nuw %struct.WebPRescaler, ptr %6, i32 0, i32 14
  %8 = load i32, ptr %7, align 8, !tbaa !96
  %9 = icmp sge i32 %5, %8
  %10 = zext i1 %9 to i32
  ret i32 %10
}

; Function Attrs: inlinehint nounwind uwtable
define internal i32 @WebPRescalerHasPendingOutput(ptr noundef %0) #2 {
  %2 = alloca ptr, align 8
  store ptr %0, ptr %2, align 8, !tbaa !45
  %3 = load ptr, ptr %2, align 8, !tbaa !45
  %4 = call i32 @WebPRescalerOutputDone(ptr noundef %3)
  %5 = icmp ne i32 %4, 0
  br i1 %5, label %11, label %6

6:                                                ; preds = %1
  %7 = load ptr, ptr %2, align 8, !tbaa !45
  %8 = getelementptr inbounds nuw %struct.WebPRescaler, ptr %7, i32 0, i32 6
  %9 = load i32, ptr %8, align 8, !tbaa !94
  %10 = icmp sle i32 %9, 0
  br label %11

11:                                               ; preds = %6, %1
  %12 = phi i1 [ false, %1 ], [ %10, %6 ]
  %13 = zext i1 %12 to i32
  ret i32 %13
}

; Function Attrs: nounwind uwtable
define internal i32 @ExportRGB(ptr noundef %0, i32 noundef %1) #0 {
  %3 = alloca ptr, align 8
  %4 = alloca i32, align 4
  %5 = alloca ptr, align 8
  %6 = alloca ptr, align 8
  %7 = alloca ptr, align 8
  %8 = alloca i32, align 4
  store ptr %0, ptr %3, align 8, !tbaa !3
  store i32 %1, ptr %4, align 4, !tbaa !19
  call void @llvm.lifetime.start.p0(i64 8, ptr %5) #6
  %9 = load ptr, ptr %3, align 8, !tbaa !3
  %10 = getelementptr inbounds nuw %struct.WebPDecParams, ptr %9, i32 0, i32 0
  %11 = load ptr, ptr %10, align 8, !tbaa !28
  %12 = getelementptr inbounds nuw %struct.WebPDecBuffer, ptr %11, i32 0, i32 0
  %13 = load i32, ptr %12, align 8, !tbaa !29
  %14 = zext i32 %13 to i64
  %15 = getelementptr inbounds nuw [0 x ptr], ptr @WebPYUV444Converters, i64 0, i64 %14
  %16 = load ptr, ptr %15, align 8, !tbaa !73
  store ptr %16, ptr %5, align 8, !tbaa !73
  call void @llvm.lifetime.start.p0(i64 8, ptr %6) #6
  %17 = load ptr, ptr %3, align 8, !tbaa !3
  %18 = getelementptr inbounds nuw %struct.WebPDecParams, ptr %17, i32 0, i32 0
  %19 = load ptr, ptr %18, align 8, !tbaa !28
  %20 = getelementptr inbounds nuw %struct.WebPDecBuffer, ptr %19, i32 0, i32 4
  store ptr %20, ptr %6, align 8, !tbaa !62
  call void @llvm.lifetime.start.p0(i64 8, ptr %7) #6
  %21 = load ptr, ptr %6, align 8, !tbaa !62
  %22 = getelementptr inbounds nuw %struct.WebPRGBABuffer, ptr %21, i32 0, i32 0
  %23 = load ptr, ptr %22, align 8, !tbaa !64
  %24 = load i32, ptr %4, align 4, !tbaa !19
  %25 = sext i32 %24 to i64
  %26 = load ptr, ptr %6, align 8, !tbaa !62
  %27 = getelementptr inbounds nuw %struct.WebPRGBABuffer, ptr %26, i32 0, i32 1
  %28 = load i32, ptr %27, align 8, !tbaa !67
  %29 = sext i32 %28 to i64
  %30 = mul nsw i64 %25, %29
  %31 = getelementptr inbounds i8, ptr %23, i64 %30
  store ptr %31, ptr %7, align 8, !tbaa !44
  call void @llvm.lifetime.start.p0(i64 4, ptr %8) #6
  store i32 0, ptr %8, align 4, !tbaa !19
  br label %32

32:                                               ; preds = %46, %2
  %33 = load ptr, ptr %3, align 8, !tbaa !3
  %34 = getelementptr inbounds nuw %struct.WebPDecParams, ptr %33, i32 0, i32 6
  %35 = load ptr, ptr %34, align 8, !tbaa !46
  %36 = call i32 @WebPRescalerHasPendingOutput(ptr noundef %35)
  %37 = icmp ne i32 %36, 0
  br i1 %37, label %38, label %44

38:                                               ; preds = %32
  %39 = load ptr, ptr %3, align 8, !tbaa !3
  %40 = getelementptr inbounds nuw %struct.WebPDecParams, ptr %39, i32 0, i32 7
  %41 = load ptr, ptr %40, align 8, !tbaa !47
  %42 = call i32 @WebPRescalerHasPendingOutput(ptr noundef %41)
  %43 = icmp ne i32 %42, 0
  br label %44

44:                                               ; preds = %38, %32
  %45 = phi i1 [ false, %32 ], [ %43, %38 ]
  br i1 %45, label %46, label %86

46:                                               ; preds = %44
  %47 = load ptr, ptr %3, align 8, !tbaa !3
  %48 = getelementptr inbounds nuw %struct.WebPDecParams, ptr %47, i32 0, i32 6
  %49 = load ptr, ptr %48, align 8, !tbaa !46
  call void @WebPRescalerExportRow(ptr noundef %49)
  %50 = load ptr, ptr %3, align 8, !tbaa !3
  %51 = getelementptr inbounds nuw %struct.WebPDecParams, ptr %50, i32 0, i32 7
  %52 = load ptr, ptr %51, align 8, !tbaa !47
  call void @WebPRescalerExportRow(ptr noundef %52)
  %53 = load ptr, ptr %3, align 8, !tbaa !3
  %54 = getelementptr inbounds nuw %struct.WebPDecParams, ptr %53, i32 0, i32 8
  %55 = load ptr, ptr %54, align 8, !tbaa !48
  call void @WebPRescalerExportRow(ptr noundef %55)
  %56 = load ptr, ptr %5, align 8, !tbaa !73
  %57 = load ptr, ptr %3, align 8, !tbaa !3
  %58 = getelementptr inbounds nuw %struct.WebPDecParams, ptr %57, i32 0, i32 6
  %59 = load ptr, ptr %58, align 8, !tbaa !46
  %60 = getelementptr inbounds nuw %struct.WebPRescaler, ptr %59, i32 0, i32 17
  %61 = load ptr, ptr %60, align 8, !tbaa !89
  %62 = load ptr, ptr %3, align 8, !tbaa !3
  %63 = getelementptr inbounds nuw %struct.WebPDecParams, ptr %62, i32 0, i32 7
  %64 = load ptr, ptr %63, align 8, !tbaa !47
  %65 = getelementptr inbounds nuw %struct.WebPRescaler, ptr %64, i32 0, i32 17
  %66 = load ptr, ptr %65, align 8, !tbaa !89
  %67 = load ptr, ptr %3, align 8, !tbaa !3
  %68 = getelementptr inbounds nuw %struct.WebPDecParams, ptr %67, i32 0, i32 8
  %69 = load ptr, ptr %68, align 8, !tbaa !48
  %70 = getelementptr inbounds nuw %struct.WebPRescaler, ptr %69, i32 0, i32 17
  %71 = load ptr, ptr %70, align 8, !tbaa !89
  %72 = load ptr, ptr %7, align 8, !tbaa !44
  %73 = load ptr, ptr %3, align 8, !tbaa !3
  %74 = getelementptr inbounds nuw %struct.WebPDecParams, ptr %73, i32 0, i32 6
  %75 = load ptr, ptr %74, align 8, !tbaa !46
  %76 = getelementptr inbounds nuw %struct.WebPRescaler, ptr %75, i32 0, i32 13
  %77 = load i32, ptr %76, align 4, !tbaa !88
  call void %56(ptr noundef %61, ptr noundef %66, ptr noundef %71, ptr noundef %72, i32 noundef %77)
  %78 = load ptr, ptr %6, align 8, !tbaa !62
  %79 = getelementptr inbounds nuw %struct.WebPRGBABuffer, ptr %78, i32 0, i32 1
  %80 = load i32, ptr %79, align 8, !tbaa !67
  %81 = load ptr, ptr %7, align 8, !tbaa !44
  %82 = sext i32 %80 to i64
  %83 = getelementptr inbounds i8, ptr %81, i64 %82
  store ptr %83, ptr %7, align 8, !tbaa !44
  %84 = load i32, ptr %8, align 4, !tbaa !19
  %85 = add nsw i32 %84, 1
  store i32 %85, ptr %8, align 4, !tbaa !19
  br label %32, !llvm.loop !93

86:                                               ; preds = %44
  %87 = load i32, ptr %8, align 4, !tbaa !19
  call void @llvm.lifetime.end.p0(i64 4, ptr %8) #6
  call void @llvm.lifetime.end.p0(i64 8, ptr %7) #6
  call void @llvm.lifetime.end.p0(i64 8, ptr %6) #6
  call void @llvm.lifetime.end.p0(i64 8, ptr %5) #6
  ret i32 %87
}

; Function Attrs: nounwind uwtable
define internal i32 @EmitRescaledRGB(ptr noundef %0, ptr noundef %1) #0 {
  %3 = alloca ptr, align 8
  %4 = alloca ptr, align 8
  %5 = alloca i32, align 4
  %6 = alloca i32, align 4
  %7 = alloca i32, align 4
  %8 = alloca i32, align 4
  %9 = alloca i32, align 4
  %10 = alloca i32, align 4
  %11 = alloca i32, align 4
  %12 = alloca i32, align 4
  store ptr %0, ptr %3, align 8, !tbaa !8
  store ptr %1, ptr %4, align 8, !tbaa !3
  call void @llvm.lifetime.start.p0(i64 4, ptr %5) #6
  %13 = load ptr, ptr %3, align 8, !tbaa !8
  %14 = getelementptr inbounds nuw %struct.VP8Io, ptr %13, i32 0, i32 4
  %15 = load i32, ptr %14, align 8, !tbaa !20
  store i32 %15, ptr %5, align 4, !tbaa !19
  call void @llvm.lifetime.start.p0(i64 4, ptr %6) #6
  %16 = load i32, ptr %5, align 4, !tbaa !19
  %17 = add nsw i32 %16, 1
  %18 = ashr i32 %17, 1
  store i32 %18, ptr %6, align 4, !tbaa !19
  call void @llvm.lifetime.start.p0(i64 4, ptr %7) #6
  store i32 0, ptr %7, align 4, !tbaa !19
  call void @llvm.lifetime.start.p0(i64 4, ptr %8) #6
  store i32 0, ptr %8, align 4, !tbaa !19
  call void @llvm.lifetime.start.p0(i64 4, ptr %9) #6
  store i32 0, ptr %9, align 4, !tbaa !19
  br label %19

19:                                               ; preds = %102, %2
  %20 = load i32, ptr %7, align 4, !tbaa !19
  %21 = load i32, ptr %5, align 4, !tbaa !19
  %22 = icmp slt i32 %20, %21
  br i1 %22, label %23, label %112

23:                                               ; preds = %19
  call void @llvm.lifetime.start.p0(i64 4, ptr %10) #6
  %24 = load ptr, ptr %4, align 8, !tbaa !3
  %25 = getelementptr inbounds nuw %struct.WebPDecParams, ptr %24, i32 0, i32 6
  %26 = load ptr, ptr %25, align 8, !tbaa !46
  %27 = load i32, ptr %5, align 4, !tbaa !19
  %28 = load i32, ptr %7, align 4, !tbaa !19
  %29 = sub nsw i32 %27, %28
  %30 = load ptr, ptr %3, align 8, !tbaa !8
  %31 = getelementptr inbounds nuw %struct.VP8Io, ptr %30, i32 0, i32 5
  %32 = load ptr, ptr %31, align 8, !tbaa !68
  %33 = load i32, ptr %7, align 4, !tbaa !19
  %34 = sext i32 %33 to i64
  %35 = load ptr, ptr %3, align 8, !tbaa !8
  %36 = getelementptr inbounds nuw %struct.VP8Io, ptr %35, i32 0, i32 8
  %37 = load i32, ptr %36, align 8, !tbaa !69
  %38 = sext i32 %37 to i64
  %39 = mul nsw i64 %34, %38
  %40 = getelementptr inbounds i8, ptr %32, i64 %39
  %41 = load ptr, ptr %3, align 8, !tbaa !8
  %42 = getelementptr inbounds nuw %struct.VP8Io, ptr %41, i32 0, i32 8
  %43 = load i32, ptr %42, align 8, !tbaa !69
  %44 = call i32 @WebPRescalerImport(ptr noundef %26, i32 noundef %29, ptr noundef %40, i32 noundef %43)
  store i32 %44, ptr %10, align 4, !tbaa !19
  %45 = load i32, ptr %10, align 4, !tbaa !19
  %46 = load i32, ptr %7, align 4, !tbaa !19
  %47 = add nsw i32 %46, %45
  store i32 %47, ptr %7, align 4, !tbaa !19
  %48 = load ptr, ptr %4, align 8, !tbaa !3
  %49 = getelementptr inbounds nuw %struct.WebPDecParams, ptr %48, i32 0, i32 7
  %50 = load ptr, ptr %49, align 8, !tbaa !47
  %51 = load i32, ptr %6, align 4, !tbaa !19
  %52 = load i32, ptr %8, align 4, !tbaa !19
  %53 = sub nsw i32 %51, %52
  %54 = call i32 @WebPRescaleNeededLines(ptr noundef %50, i32 noundef %53)
  %55 = icmp ne i32 %54, 0
  br i1 %55, label %56, label %102

56:                                               ; preds = %23
  call void @llvm.lifetime.start.p0(i64 4, ptr %11) #6
  %57 = load ptr, ptr %4, align 8, !tbaa !3
  %58 = getelementptr inbounds nuw %struct.WebPDecParams, ptr %57, i32 0, i32 7
  %59 = load ptr, ptr %58, align 8, !tbaa !47
  %60 = load i32, ptr %6, align 4, !tbaa !19
  %61 = load i32, ptr %8, align 4, !tbaa !19
  %62 = sub nsw i32 %60, %61
  %63 = load ptr, ptr %3, align 8, !tbaa !8
  %64 = getelementptr inbounds nuw %struct.VP8Io, ptr %63, i32 0, i32 6
  %65 = load ptr, ptr %64, align 8, !tbaa !70
  %66 = load i32, ptr %8, align 4, !tbaa !19
  %67 = sext i32 %66 to i64
  %68 = load ptr, ptr %3, align 8, !tbaa !8
  %69 = getelementptr inbounds nuw %struct.VP8Io, ptr %68, i32 0, i32 9
  %70 = load i32, ptr %69, align 4, !tbaa !72
  %71 = sext i32 %70 to i64
  %72 = mul nsw i64 %67, %71
  %73 = getelementptr inbounds i8, ptr %65, i64 %72
  %74 = load ptr, ptr %3, align 8, !tbaa !8
  %75 = getelementptr inbounds nuw %struct.VP8Io, ptr %74, i32 0, i32 9
  %76 = load i32, ptr %75, align 4, !tbaa !72
  %77 = call i32 @WebPRescalerImport(ptr noundef %59, i32 noundef %62, ptr noundef %73, i32 noundef %76)
  store i32 %77, ptr %11, align 4, !tbaa !19
  call void @llvm.lifetime.start.p0(i64 4, ptr %12) #6
  %78 = load ptr, ptr %4, align 8, !tbaa !3
  %79 = getelementptr inbounds nuw %struct.WebPDecParams, ptr %78, i32 0, i32 8
  %80 = load ptr, ptr %79, align 8, !tbaa !48
  %81 = load i32, ptr %6, align 4, !tbaa !19
  %82 = load i32, ptr %8, align 4, !tbaa !19
  %83 = sub nsw i32 %81, %82
  %84 = load ptr, ptr %3, align 8, !tbaa !8
  %85 = getelementptr inbounds nuw %struct.VP8Io, ptr %84, i32 0, i32 7
  %86 = load ptr, ptr %85, align 8, !tbaa !71
  %87 = load i32, ptr %8, align 4, !tbaa !19
  %88 = sext i32 %87 to i64
  %89 = load ptr, ptr %3, align 8, !tbaa !8
  %90 = getelementptr inbounds nuw %struct.VP8Io, ptr %89, i32 0, i32 9
  %91 = load i32, ptr %90, align 4, !tbaa !72
  %92 = sext i32 %91 to i64
  %93 = mul nsw i64 %88, %92
  %94 = getelementptr inbounds i8, ptr %86, i64 %93
  %95 = load ptr, ptr %3, align 8, !tbaa !8
  %96 = getelementptr inbounds nuw %struct.VP8Io, ptr %95, i32 0, i32 9
  %97 = load i32, ptr %96, align 4, !tbaa !72
  %98 = call i32 @WebPRescalerImport(ptr noundef %80, i32 noundef %83, ptr noundef %94, i32 noundef %97)
  store i32 %98, ptr %12, align 4, !tbaa !19
  %99 = load i32, ptr %11, align 4, !tbaa !19
  %100 = load i32, ptr %8, align 4, !tbaa !19
  %101 = add nsw i32 %100, %99
  store i32 %101, ptr %8, align 4, !tbaa !19
  call void @llvm.lifetime.end.p0(i64 4, ptr %12) #6
  call void @llvm.lifetime.end.p0(i64 4, ptr %11) #6
  br label %102

102:                                              ; preds = %56, %23
  %103 = load ptr, ptr %4, align 8, !tbaa !3
  %104 = load ptr, ptr %4, align 8, !tbaa !3
  %105 = getelementptr inbounds nuw %struct.WebPDecParams, ptr %104, i32 0, i32 4
  %106 = load i32, ptr %105, align 8, !tbaa !27
  %107 = load i32, ptr %9, align 4, !tbaa !19
  %108 = add nsw i32 %106, %107
  %109 = call i32 @ExportRGB(ptr noundef %103, i32 noundef %108)
  %110 = load i32, ptr %9, align 4, !tbaa !19
  %111 = add nsw i32 %110, %109
  store i32 %111, ptr %9, align 4, !tbaa !19
  call void @llvm.lifetime.end.p0(i64 4, ptr %10) #6
  br label %19, !llvm.loop !84

112:                                              ; preds = %19
  %113 = load i32, ptr %9, align 4, !tbaa !19
  call void @llvm.lifetime.end.p0(i64 4, ptr %9) #6
  call void @llvm.lifetime.end.p0(i64 4, ptr %8) #6
  call void @llvm.lifetime.end.p0(i64 4, ptr %7) #6
  call void @llvm.lifetime.end.p0(i64 4, ptr %6) #6
  call void @llvm.lifetime.end.p0(i64 4, ptr %5) #6
  ret i32 %113
}