; Function Attrs: nounwind uwtable
define internal i32 @EmitRescaledRGB(ptr noundef readonly captures(none) %0, ptr noundef readonly captures(none) %1) #1 {
  %3 = getelementptr inbounds nuw i8, ptr %0, i64 16
  %4 = load i32, ptr %3, align 8, !tbaa !15
  %5 = add nsw i32 %4, 1
  %6 = ashr i32 %5, 1
  %7 = icmp sgt i32 %4, 0
  br i1 %7, label %.lr.ph, label %._crit_edge

.lr.ph:                                           ; preds = %2
  %8 = getelementptr inbounds nuw i8, ptr %1, i64 48
  %9 = getelementptr inbounds nuw i8, ptr %0, i64 24
  %10 = getelementptr inbounds nuw i8, ptr %0, i64 48
  %11 = getelementptr inbounds nuw i8, ptr %1, i64 56
  %12 = getelementptr inbounds nuw i8, ptr %0, i64 32
  %13 = getelementptr inbounds nuw i8, ptr %0, i64 52
  %14 = getelementptr inbounds nuw i8, ptr %1, i64 64
  %15 = getelementptr inbounds nuw i8, ptr %0, i64 40
  %16 = getelementptr inbounds nuw i8, ptr %1, i64 32
  %.pre = load ptr, ptr %8, align 8, !tbaa !31
  br label %17

17:                                               ; preds = %.lr.ph, %ExportRGB.exit
  %18 = phi ptr [ %.pre, %.lr.ph ], [ %99, %ExportRGB.exit ]
  %.041 = phi i32 [ 0, %.lr.ph ], [ %27, %ExportRGB.exit ]
  %.03640 = phi i32 [ 0, %.lr.ph ], [ %.1, %ExportRGB.exit ]
  %.03739 = phi i32 [ 0, %.lr.ph ], [ %100, %ExportRGB.exit ]
  %19 = sub nsw i32 %4, %.041
  %20 = load ptr, ptr %9, align 8, !tbaa !53
  %21 = sext i32 %.041 to i64
  %22 = load i32, ptr %10, align 8, !tbaa !54
  %23 = sext i32 %22 to i64
  %24 = mul nsw i64 %23, %21
  %25 = getelementptr inbounds i8, ptr %20, i64 %24
  %26 = tail call i32 @WebPRescalerImport(ptr noundef %18, i32 noundef %19, ptr noundef %25, i32 noundef %22) #6
  %27 = add nsw i32 %26, %.041
  %28 = load ptr, ptr %11, align 8, !tbaa !32
  %29 = sub nsw i32 %6, %.03640
  %30 = tail call i32 @WebPRescaleNeededLines(ptr noundef %28, i32 noundef %29) #6
  %.not = icmp eq i32 %30, 0
  br i1 %.not, label %48, label %31

31:                                               ; preds = %17
  %32 = load ptr, ptr %11, align 8, !tbaa !32
  %33 = load ptr, ptr %12, align 8, !tbaa !55
  %34 = sext i32 %.03640 to i64
  %35 = load i32, ptr %13, align 4, !tbaa !57
  %36 = sext i32 %35 to i64
  %37 = mul nsw i64 %36, %34
  %38 = getelementptr inbounds i8, ptr %33, i64 %37
  %39 = tail call i32 @WebPRescalerImport(ptr noundef %32, i32 noundef %29, ptr noundef %38, i32 noundef %35) #6
  %40 = load ptr, ptr %14, align 8, !tbaa !33
  %41 = load ptr, ptr %15, align 8, !tbaa !56
  %42 = load i32, ptr %13, align 4, !tbaa !57
  %43 = sext i32 %42 to i64
  %44 = mul nsw i64 %43, %34
  %45 = getelementptr inbounds i8, ptr %41, i64 %44
  %46 = tail call i32 @WebPRescalerImport(ptr noundef %40, i32 noundef %29, ptr noundef %45, i32 noundef %42) #6
  %47 = add nsw i32 %39, %.03640
  br label %48

48:                                               ; preds = %31, %17
  %.1 = phi i32 [ %47, %31 ], [ %.03640, %17 ]
  %49 = load ptr, ptr %1, align 8, !tbaa !23
  %50 = load i32, ptr %49, align 8, !tbaa !24
  %51 = zext i32 %50 to i64
  %52 = getelementptr inbounds nuw [0 x ptr], ptr @WebPYUV444Converters, i64 0, i64 %51
  %53 = load ptr, ptr %52, align 8, !tbaa !58
  %54 = getelementptr inbounds nuw i8, ptr %49, i64 24
  %55 = load ptr, ptr %8, align 8, !tbaa !31
  %56 = getelementptr i8, ptr %55, i64 56
  %.val.i27.i = load i32, ptr %56, align 8, !tbaa !70
  %57 = getelementptr i8, ptr %55, i64 64
  %.val2.i28.i = load i32, ptr %57, align 8, !tbaa !73
  %.not3.i29.i = icmp slt i32 %.val2.i28.i, %.val.i27.i
  br i1 %.not3.i29.i, label %WebPRescalerHasPendingOutput.exit.lr.ph.i, label %ExportRGB.exit

WebPRescalerHasPendingOutput.exit.lr.ph.i:        ; preds = %48
  %58 = load i32, ptr %16, align 8, !tbaa !22
  %59 = add nsw i32 %58, %.03739
  %60 = getelementptr inbounds nuw i8, ptr %49, i64 16
  %61 = load ptr, ptr %60, align 8, !tbaa !49
  %62 = load i32, ptr %54, align 8, !tbaa !52
  %63 = sext i32 %62 to i64
  %64 = sext i32 %59 to i64
  %65 = mul nsw i64 %63, %64
  %66 = getelementptr inbounds i8, ptr %61, i64 %65
  br label %WebPRescalerHasPendingOutput.exit.i

WebPRescalerHasPendingOutput.exit.i:              ; preds = %78, %WebPRescalerHasPendingOutput.exit.lr.ph.i
  %67 = phi ptr [ %55, %WebPRescalerHasPendingOutput.exit.lr.ph.i ], [ %96, %78 ]
  %.031.i = phi i32 [ 0, %WebPRescalerHasPendingOutput.exit.lr.ph.i ], [ %95, %78 ]
  %.01930.i = phi ptr [ %66, %WebPRescalerHasPendingOutput.exit.lr.ph.i ], [ %94, %78 ]
  %68 = getelementptr inbounds nuw i8, ptr %67, i64 24
  %69 = load i32, ptr %68, align 8, !tbaa !74
  %70 = icmp sgt i32 %69, 0
  br i1 %70, label %ExportRGB.exit, label %71

71:                                               ; preds = %WebPRescalerHasPendingOutput.exit.i
  %72 = load ptr, ptr %11, align 8, !tbaa !32
  %73 = getelementptr i8, ptr %72, i64 56
  %.val.i21.i = load i32, ptr %73, align 8, !tbaa !70
  %74 = getelementptr i8, ptr %72, i64 64
  %.val2.i22.i = load i32, ptr %74, align 8, !tbaa !73
  %.not3.i23.i = icmp slt i32 %.val2.i22.i, %.val.i21.i
  br i1 %.not3.i23.i, label %WebPRescalerHasPendingOutput.exit24.i, label %ExportRGB.exit

WebPRescalerHasPendingOutput.exit24.i:            ; preds = %71
  %75 = getelementptr inbounds nuw i8, ptr %72, i64 24
  %76 = load i32, ptr %75, align 8, !tbaa !74
  %77 = icmp sgt i32 %76, 0
  br i1 %77, label %ExportRGB.exit, label %78

78:                                               ; preds = %WebPRescalerHasPendingOutput.exit24.i
  tail call void @WebPRescalerExportRow(ptr noundef nonnull %67) #6
  %79 = load ptr, ptr %11, align 8, !tbaa !32
  tail call void @WebPRescalerExportRow(ptr noundef %79) #6
  %80 = load ptr, ptr %14, align 8, !tbaa !33
  tail call void @WebPRescalerExportRow(ptr noundef %80) #6
  %81 = load ptr, ptr %8, align 8, !tbaa !31
  %82 = getelementptr inbounds nuw i8, ptr %81, i64 72
  %83 = load ptr, ptr %82, align 8, !tbaa !75
  %84 = load ptr, ptr %11, align 8, !tbaa !32
  %85 = getelementptr inbounds nuw i8, ptr %84, i64 72
  %86 = load ptr, ptr %85, align 8, !tbaa !75
  %87 = load ptr, ptr %14, align 8, !tbaa !33
  %88 = getelementptr inbounds nuw i8, ptr %87, i64 72
  %89 = load ptr, ptr %88, align 8, !tbaa !75
  %90 = getelementptr inbounds nuw i8, ptr %81, i64 52
  %91 = load i32, ptr %90, align 4, !tbaa !76
  tail call void %53(ptr noundef %83, ptr noundef %86, ptr noundef %89, ptr noundef %.01930.i, i32 noundef %91) #6
  %92 = load i32, ptr %54, align 8, !tbaa !52
  %93 = sext i32 %92 to i64
  %94 = getelementptr inbounds i8, ptr %.01930.i, i64 %93
  %95 = add nuw nsw i32 %.031.i, 1
  %96 = load ptr, ptr %8, align 8, !tbaa !31
  %97 = getelementptr i8, ptr %96, i64 56
  %.val.i.i = load i32, ptr %97, align 8, !tbaa !70
  %98 = getelementptr i8, ptr %96, i64 64
  %.val2.i.i = load i32, ptr %98, align 8, !tbaa !73
  %.not3.i.i = icmp slt i32 %.val2.i.i, %.val.i.i
  br i1 %.not3.i.i, label %WebPRescalerHasPendingOutput.exit.i, label %ExportRGB.exit, !llvm.loop !77

ExportRGB.exit:                                   ; preds = %WebPRescalerHasPendingOutput.exit.i, %71, %WebPRescalerHasPendingOutput.exit24.i, %78, %48
  %99 = phi ptr [ %55, %48 ], [ %67, %WebPRescalerHasPendingOutput.exit24.i ], [ %67, %WebPRescalerHasPendingOutput.exit.i ], [ %96, %78 ], [ %67, %71 ]
  %.0.lcssa.i = phi i32 [ 0, %48 ], [ %.031.i, %WebPRescalerHasPendingOutput.exit24.i ], [ %.031.i, %WebPRescalerHasPendingOutput.exit.i ], [ %95, %78 ], [ %.031.i, %71 ]
  %100 = add nsw i32 %.0.lcssa.i, %.03739
  %101 = icmp slt i32 %27, %4
  br i1 %101, label %17, label %._crit_edge, !llvm.loop !78

._crit_edge:                                      ; preds = %ExportRGB.exit, %2
  %.037.lcssa = phi i32 [ 0, %2 ], [ %100, %ExportRGB.exit ]
  ret i32 %.037.lcssa
}